; ModuleID = '17/1390.c'
source_filename = "17/1390.c"
target datalayout = "e-m:e-p270:32:32-p271:32:32-p272:64:64-i64:64-f80:128-n8:16:32:64-S128"
target triple = "x86_64-pc-linux-gnu"

@.str = private unnamed_addr constant [3 x i8] c"%d\00", align 1
@.str.1 = private unnamed_addr constant [3 x i8] c"%c\00", align 1
@.str.2 = private unnamed_addr constant [2 x i8] c"\0A\00", align 1

; Function Attrs: noinline nounwind uwtable
define dso_local i32 @main() #0 {
  %1 = alloca i32, align 4
  %2 = alloca i32, align 4
  %3 = alloca i32, align 4
  %4 = alloca i32, align 4
  %5 = alloca i32, align 4
  %6 = alloca i32, align 4
  %7 = alloca [100 x [120 x i8]], align 16
  store i32 0, i32* %1, align 4
  %8 = call i32 (i8*, ...) @__isoc99_scanf(i8* getelementptr inbounds ([3 x i8], [3 x i8]* @.str, i64 0, i64 0), i32* %2)
  %9 = call i32 @getchar()
  store i32 0, i32* %3, align 4
  br label %10

10:                                               ; preds = %181, %0
  %11 = load i32, i32* %3, align 4
  %12 = load i32, i32* %2, align 4
  %13 = icmp slt i32 %11, %12
  br i1 %13, label %14, label %184

14:                                               ; preds = %10
  %15 = load i32, i32* %3, align 4
  %16 = sext i32 %15 to i64
  %17 = getelementptr inbounds [100 x [120 x i8]], [100 x [120 x i8]]* %7, i64 0, i64 %16
  %18 = getelementptr inbounds [120 x i8], [120 x i8]* %17, i64 0, i64 0
  %19 = call i32 (i8*, ...) bitcast (i32 (...)* @gets to i32 (i8*, ...)*)(i8* %18)
  %20 = load i32, i32* %3, align 4
  %21 = sext i32 %20 to i64
  %22 = getelementptr inbounds [100 x [120 x i8]], [100 x [120 x i8]]* %7, i64 0, i64 %21
  %23 = getelementptr inbounds [120 x i8], [120 x i8]* %22, i64 0, i64 0
  %24 = call i32 @puts(i8* %23)
  %25 = load i32, i32* %3, align 4
  %26 = sext i32 %25 to i64
  %27 = getelementptr inbounds [100 x [120 x i8]], [100 x [120 x i8]]* %7, i64 0, i64 %26
  %28 = getelementptr inbounds [120 x i8], [120 x i8]* %27, i64 0, i64 0
  %29 = call i64 @strlen(i8* %28) #3
  %30 = trunc i64 %29 to i32
  store i32 %30, i32* %5, align 4
  store i32 0, i32* %4, align 4
  br label %31

31:                                               ; preds = %70, %14
  %32 = load i32, i32* %4, align 4
  %33 = load i32, i32* %5, align 4
  %34 = icmp slt i32 %32, %33
  br i1 %34, label %35, label %73

35:                                               ; preds = %31
  %36 = load i32, i32* %3, align 4
  %37 = sext i32 %36 to i64
  %38 = getelementptr inbounds [100 x [120 x i8]], [100 x [120 x i8]]* %7, i64 0, i64 %37
  %39 = load i32, i32* %4, align 4
  %40 = sext i32 %39 to i64
  %41 = getelementptr inbounds [120 x i8], [120 x i8]* %38, i64 0, i64 %40
  %42 = load i8, i8* %41, align 1
  %43 = sext i8 %42 to i32
  %44 = icmp eq i32 %43, 41
  br i1 %44, label %45, label %52

45:                                               ; preds = %35
  %46 = load i32, i32* %3, align 4
  %47 = sext i32 %46 to i64
  %48 = getelementptr inbounds [100 x [120 x i8]], [100 x [120 x i8]]* %7, i64 0, i64 %47
  %49 = load i32, i32* %4, align 4
  %50 = sext i32 %49 to i64
  %51 = getelementptr inbounds [120 x i8], [120 x i8]* %48, i64 0, i64 %50
  store i8 63, i8* %51, align 1
  br label %52

52:                                               ; preds = %45, %35
  %53 = load i32, i32* %3, align 4
  %54 = sext i32 %53 to i64
  %55 = getelementptr inbounds [100 x [120 x i8]], [100 x [120 x i8]]* %7, i64 0, i64 %54
  %56 = load i32, i32* %4, align 4
  %57 = sext i32 %56 to i64
  %58 = getelementptr inbounds [120 x i8], [120 x i8]* %55, i64 0, i64 %57
  %59 = load i8, i8* %58, align 1
  %60 = sext i8 %59 to i32
  %61 = icmp eq i32 %60, 40
  br i1 %61, label %62, label %69

62:                                               ; preds = %52
  %63 = load i32, i32* %3, align 4
  %64 = sext i32 %63 to i64
  %65 = getelementptr inbounds [100 x [120 x i8]], [100 x [120 x i8]]* %7, i64 0, i64 %64
  %66 = load i32, i32* %4, align 4
  %67 = sext i32 %66 to i64
  %68 = getelementptr inbounds [120 x i8], [120 x i8]* %65, i64 0, i64 %67
  store i8 36, i8* %68, align 1
  br label %69

69:                                               ; preds = %62, %52
  br label %70

70:                                               ; preds = %69
  %71 = load i32, i32* %4, align 4
  %72 = add nsw i32 %71, 1
  store i32 %72, i32* %4, align 4
  br label %31

73:                                               ; preds = %31
  store i32 0, i32* %4, align 4
  br label %74

74:                                               ; preds = %106, %73
  %75 = load i32, i32* %4, align 4
  %76 = load i32, i32* %5, align 4
  %77 = icmp slt i32 %75, %76
  br i1 %77, label %78, label %109

78:                                               ; preds = %74
  %79 = load i32, i32* %3, align 4
  %80 = sext i32 %79 to i64
  %81 = getelementptr inbounds [100 x [120 x i8]], [100 x [120 x i8]]* %7, i64 0, i64 %80
  %82 = load i32, i32* %4, align 4
  %83 = sext i32 %82 to i64
  %84 = getelementptr inbounds [120 x i8], [120 x i8]* %81, i64 0, i64 %83
  %85 = load i8, i8* %84, align 1
  %86 = sext i8 %85 to i32
  %87 = icmp ne i32 %86, 63
  br i1 %87, label %88, label %105

88:                                               ; preds = %78
  %89 = load i32, i32* %3, align 4
  %90 = sext i32 %89 to i64
  %91 = getelementptr inbounds [100 x [120 x i8]], [100 x [120 x i8]]* %7, i64 0, i64 %90
  %92 = load i32, i32* %4, align 4
  %93 = sext i32 %92 to i64
  %94 = getelementptr inbounds [120 x i8], [120 x i8]* %91, i64 0, i64 %93
  %95 = load i8, i8* %94, align 1
  %96 = sext i8 %95 to i32
  %97 = icmp ne i32 %96, 36
  br i1 %97, label %98, label %105

98:                                               ; preds = %88
  %99 = load i32, i32* %3, align 4
  %100 = sext i32 %99 to i64
  %101 = getelementptr inbounds [100 x [120 x i8]], [100 x [120 x i8]]* %7, i64 0, i64 %100
  %102 = load i32, i32* %4, align 4
  %103 = sext i32 %102 to i64
  %104 = getelementptr inbounds [120 x i8], [120 x i8]* %101, i64 0, i64 %103
  store i8 32, i8* %104, align 1
  br label %105

105:                                              ; preds = %98, %88, %78
  br label %106

106:                                              ; preds = %105
  %107 = load i32, i32* %4, align 4
  %108 = add nsw i32 %107, 1
  store i32 %108, i32* %4, align 4
  br label %74

109:                                              ; preds = %74
  store i32 0, i32* %4, align 4
  br label %110

110:                                              ; preds = %158, %109
  %111 = load i32, i32* %4, align 4
  %112 = load i32, i32* %5, align 4
  %113 = icmp slt i32 %111, %112
  br i1 %113, label %114, label %161

114:                                              ; preds = %110
  %115 = load i32, i32* %3, align 4
  %116 = sext i32 %115 to i64
  %117 = getelementptr inbounds [100 x [120 x i8]], [100 x [120 x i8]]* %7, i64 0, i64 %116
  %118 = load i32, i32* %4, align 4
  %119 = sext i32 %118 to i64
  %120 = getelementptr inbounds [120 x i8], [120 x i8]* %117, i64 0, i64 %119
  %121 = load i8, i8* %120, align 1
  %122 = sext i8 %121 to i32
  %123 = icmp eq i32 %122, 63
  br i1 %123, label %124, label %157

124:                                              ; preds = %114
  %125 = load i32, i32* %4, align 4
  store i32 %125, i32* %6, align 4
  br label %126

126:                                              ; preds = %153, %124
  %127 = load i32, i32* %6, align 4
  %128 = icmp sge i32 %127, 0
  br i1 %128, label %129, label %156

129:                                              ; preds = %126
  %130 = load i32, i32* %3, align 4
  %131 = sext i32 %130 to i64
  %132 = getelementptr inbounds [100 x [120 x i8]], [100 x [120 x i8]]* %7, i64 0, i64 %131
  %133 = load i32, i32* %6, align 4
  %134 = sext i32 %133 to i64
  %135 = getelementptr inbounds [120 x i8], [120 x i8]* %132, i64 0, i64 %134
  %136 = load i8, i8* %135, align 1
  %137 = sext i8 %136 to i32
  %138 = icmp eq i32 %137, 36
  br i1 %138, label %139, label %152

139:                                              ; preds = %129
  %140 = load i32, i32* %3, align 4
  %141 = sext i32 %140 to i64
  %142 = getelementptr inbounds [100 x [120 x i8]], [100 x [120 x i8]]* %7, i64 0, i64 %141
  %143 = load i32, i32* %4, align 4
  %144 = sext i32 %143 to i64
  %145 = getelementptr inbounds [120 x i8], [120 x i8]* %142, i64 0, i64 %144
  store i8 32, i8* %145, align 1
  %146 = load i32, i32* %3, align 4
  %147 = sext i32 %146 to i64
  %148 = getelementptr inbounds [100 x [120 x i8]], [100 x [120 x i8]]* %7, i64 0, i64 %147
  %149 = load i32, i32* %6, align 4
  %150 = sext i32 %149 to i64
  %151 = getelementptr inbounds [120 x i8], [120 x i8]* %148, i64 0, i64 %150
  store i8 32, i8* %151, align 1
  br label %156

152:                                              ; preds = %129
  br label %153

153:                                              ; preds = %152
  %154 = load i32, i32* %6, align 4
  %155 = add nsw i32 %154, -1
  store i32 %155, i32* %6, align 4
  br label %126

156:                                              ; preds = %139, %126
  br label %157

157:                                              ; preds = %156, %114
  br label %158

158:                                              ; preds = %157
  %159 = load i32, i32* %4, align 4
  %160 = add nsw i32 %159, 1
  store i32 %160, i32* %4, align 4
  br label %110

161:                                              ; preds = %110
  store i32 0, i32* %4, align 4
  br label %162

162:                                              ; preds = %176, %161
  %163 = load i32, i32* %4, align 4
  %164 = load i32, i32* %5, align 4
  %165 = icmp slt i32 %163, %164
  br i1 %165, label %166, label %179

166:                                              ; preds = %162
  %167 = load i32, i32* %3, align 4
  %168 = sext i32 %167 to i64
  %169 = getelementptr inbounds [100 x [120 x i8]], [100 x [120 x i8]]* %7, i64 0, i64 %168
  %170 = load i32, i32* %4, align 4
  %171 = sext i32 %170 to i64
  %172 = getelementptr inbounds [120 x i8], [120 x i8]* %169, i64 0, i64 %171
  %173 = load i8, i8* %172, align 1
  %174 = sext i8 %173 to i32
  %175 = call i32 (i8*, ...) @printf(i8* getelementptr inbounds ([3 x i8], [3 x i8]* @.str.1, i64 0, i64 0), i32 %174)
  br label %176

176:                                              ; preds = %166
  %177 = load i32, i32* %4, align 4
  %178 = add nsw i32 %177, 1
  store i32 %178, i32* %4, align 4
  br label %162

179:                                              ; preds = %162
  %180 = call i32 (i8*, ...) @printf(i8* getelementptr inbounds ([2 x i8], [2 x i8]* @.str.2, i64 0, i64 0))
  br label %181

181:                                              ; preds = %179
  %182 = load i32, i32* %3, align 4
  %183 = add nsw i32 %182, 1
  store i32 %183, i32* %3, align 4
  br label %10

184:                                              ; preds = %10
  ret i32 0
}

declare dso_local i32 @__isoc99_scanf(i8*, ...) #1

declare dso_local i32 @getchar() #1

declare dso_local i32 @gets(...) #1

declare dso_local i32 @puts(i8*) #1

; Function Attrs: nounwind readonly
declare dso_local i64 @strlen(i8*) #2

declare dso_local i32 @printf(i8*, ...) #1


!llvm.module.flags = !{!0}
!llvm.ident = !{!1}

!0 = !{i32 1, !"wchar_size", i32 4}
!1 = !{!"clang version 10.0.0-4ubuntu1 "}
